target datalayout = "e-m:e-p270:32:32-p271:32:32-p272:64:64-i64:64-i128:128-f80:128-n8:16:32:64-S128"
target triple = "x86_64-pc-linux-gnu"

%struct.FunctionCallInfoBaseData = type { ptr, ptr, ptr, i32, i8, i16, [0 x %struct.NullableDatum] }
%struct.NullableDatum = type { i64, i8 }
%struct.SortSupportData = type { ptr, i32, i8, i8, i16, ptr, ptr, i8, ptr, ptr, ptr }

; Function Attrs: inlinehint nounwind uwtable
define internal ptr @DatumGetPointer(i64 noundef %0) #2 {
  %2 = alloca i64, align 8
  store i64 %0, ptr %2, align 8
  %3 = load i64, ptr %2, align 8
  %4 = inttoptr i64 %3 to ptr
  ret ptr %4
}

; Function Attrs: nounwind uwtable
define dso_local i64 @gist_point_sortsupport(ptr noundef %0) #0 {
  %2 = alloca ptr, align 8
  %3 = alloca ptr, align 8
  store ptr %0, ptr %2, align 8
  call void @llvm.lifetime.start.p0(i64 8, ptr %3) #10
  %4 = load ptr, ptr %2, align 8
  %5 = getelementptr inbounds nuw %struct.FunctionCallInfoBaseData, ptr %4, i32 0, i32 6
  %6 = getelementptr inbounds [0 x %struct.NullableDatum], ptr %5, i64 0, i64 0
  %7 = getelementptr inbounds nuw %struct.NullableDatum, ptr %6, i32 0, i32 0
  %8 = load i64, ptr %7, align 8
  %9 = call ptr @DatumGetPointer(i64 noundef %8)
  store ptr %9, ptr %3, align 8
  %10 = load ptr, ptr %3, align 8
  %11 = getelementptr inbounds nuw %struct.SortSupportData, ptr %10, i32 0, i32 7
  %12 = load i8, ptr %11, align 8, !range !4, !noundef !5
  %13 = trunc i8 %12 to i1
  br i1 %13, label %14, label %23

14:                                               ; preds = %1
  %15 = load ptr, ptr %3, align 8
  %16 = getelementptr inbounds nuw %struct.SortSupportData, ptr %15, i32 0, i32 6
  store ptr @ssup_datum_unsigned_cmp, ptr %16, align 8
  %17 = load ptr, ptr %3, align 8
  %18 = getelementptr inbounds nuw %struct.SortSupportData, ptr %17, i32 0, i32 8
  store ptr @gist_bbox_zorder_abbrev_convert, ptr %18, align 8
  %19 = load ptr, ptr %3, align 8
  %20 = getelementptr inbounds nuw %struct.SortSupportData, ptr %19, i32 0, i32 9
  store ptr @gist_bbox_zorder_abbrev_abort, ptr %20, align 8
  %21 = load ptr, ptr %3, align 8
  %22 = getelementptr inbounds nuw %struct.SortSupportData, ptr %21, i32 0, i32 10
  store ptr @gist_bbox_zorder_cmp, ptr %22, align 8
  br label %26

23:                                               ; preds = %1
  %24 = load ptr, ptr %3, align 8
  %25 = getelementptr inbounds nuw %struct.SortSupportData, ptr %24, i32 0, i32 6
  store ptr @gist_bbox_zorder_cmp, ptr %25, align 8
  br label %26

26:                                               ; preds = %23, %14
  call void @llvm.lifetime.end.p0(i64 8, ptr %3) #10
  ret i64 0
}