; Function Attrs: mustprogress nofree norecurse nosync nounwind willreturn memory(readwrite, inaccessiblemem: none) uwtable
define dso_local noundef i64 @gist_point_sortsupport(ptr noundef readonly captures(none) %0) local_unnamed_addr #7 {
  %2 = getelementptr inbounds nuw i8, ptr %0, i64 32
  %3 = load i64, ptr %2, align 8
  %4 = inttoptr i64 %3 to ptr
  %5 = getelementptr inbounds nuw i8, ptr %4, i64 32
  %6 = load i8, ptr %5, align 8, !range !14, !noundef !15
  %7 = trunc nuw i8 %6 to i1
  br i1 %7, label %8, label %12

8:                                                ; preds = %1
  %9 = getelementptr inbounds nuw i8, ptr %4, i64 40
  store ptr @gist_bbox_zorder_abbrev_convert, ptr %9, align 8
  %10 = getelementptr inbounds nuw i8, ptr %4, i64 48
  store ptr @gist_bbox_zorder_abbrev_abort, ptr %10, align 8
  %11 = getelementptr inbounds nuw i8, ptr %4, i64 56
  store ptr @gist_bbox_zorder_cmp, ptr %11, align 8
  br label %12

12:                                               ; preds = %1, %8
  %gist_bbox_zorder_cmp.sink = phi ptr [ @ssup_datum_unsigned_cmp, %8 ], [ @gist_bbox_zorder_cmp, %1 ]
  %13 = getelementptr inbounds nuw i8, ptr %4, i64 24
  store ptr %gist_bbox_zorder_cmp.sink, ptr %13, align 8
  ret i64 0
}